target datalayout = "e-m:e-p270:32:32-p271:32:32-p272:64:64-i64:64-i128:128-f80:128-n8:16:32:64-S128"
target triple = "x86_64-pc-linux-gnu"

@.str.33 = private unnamed_addr constant [3 x i8] c"%s\00", align 1
@.str.34 = private unnamed_addr constant [18 x i8] c"assertion failed!\00", align 1

; Function Attrs: nounwind uwtable
define internal i32 @luaB_assert(ptr noundef %0) #0 {
  %2 = alloca i32, align 4
  %3 = alloca ptr, align 8
  store ptr %0, ptr %3, align 8, !tbaa !4
  %4 = load ptr, ptr %3, align 8, !tbaa !4
  call void @luaL_checkany(ptr noundef %4, i32 noundef 1)
  %5 = load ptr, ptr %3, align 8, !tbaa !4
  %6 = call i32 @lua_toboolean(ptr noundef %5, i32 noundef 1)
  %7 = icmp ne i32 %6, 0
  br i1 %7, label %13, label %8

8:                                                ; preds = %1
  %9 = load ptr, ptr %3, align 8, !tbaa !4
  %10 = load ptr, ptr %3, align 8, !tbaa !4
  %11 = call ptr @luaL_optlstring(ptr noundef %10, i32 noundef 2, ptr noundef @.str.34, ptr noundef null)
  %12 = call i32 (ptr, ptr, ...) @luaL_error(ptr noundef %9, ptr noundef @.str.33, ptr noundef %11)
  store i32 %12, ptr %2, align 4
  br label %16

13:                                               ; preds = %1
  %14 = load ptr, ptr %3, align 8, !tbaa !4
  %15 = call i32 @lua_gettop(ptr noundef %14)
  store i32 %15, ptr %2, align 4
  br label %16

16:                                               ; preds = %13, %8
  %17 = load i32, ptr %2, align 4
  ret i32 %17
}