; Function Attrs: nounwind uwtable
define internal i32 @luaB_assert(ptr noundef %0) #0 {
  tail call void @luaL_checkany(ptr noundef %0, i32 noundef 1) #8
  %2 = tail call i32 @lua_toboolean(ptr noundef %0, i32 noundef 1) #8
  %.not = icmp eq i32 %2, 0
  br i1 %.not, label %3, label %6

3:                                                ; preds = %1
  %4 = tail call ptr @luaL_optlstring(ptr noundef %0, i32 noundef 2, ptr noundef nonnull @.str.34, ptr noundef null) #8
  %5 = tail call i32 (ptr, ptr, ...) @luaL_error(ptr noundef %0, ptr noundef nonnull @.str.33, ptr noundef %4) #8
  br label %8

6:                                                ; preds = %1
  %7 = tail call i32 @lua_gettop(ptr noundef %0) #8
  br label %8

8:                                                ; preds = %6, %3
  %.0 = phi i32 [ %7, %6 ], [ %5, %3 ]
  ret i32 %.0
}